target datalayout = "e-m:e-p270:32:32-p271:32:32-p272:64:64-i64:64-i128:128-f80:128-n8:16:32:64-S128"
target triple = "x86_64-pc-linux-gnu"

%struct.CVodeMemRec = type { ptr, double, ptr, ptr, i32, i32, double, double, ptr, i32, i32, ptr, ptr, i32, i32, ptr, i32, i32, double, double, ptr, i32, i32, i32, i32, ptr, ptr, ptr, i32, i32, ptr, ptr, ptr, i32, double, i32, i32, double, ptr, ptr, ptr, i32, ptr, ptr, i32, i32, i32, double, ptr, ptr, ptr, [13 x ptr], ptr, ptr, ptr, ptr, ptr, ptr, ptr, ptr, ptr, [13 x ptr], ptr, ptr, ptr, ptr, [13 x ptr], ptr, ptr, ptr, ptr, ptr, i32, [13 x ptr], ptr, ptr, ptr, ptr, ptr, i32, i32, double, i32, i32, i32, i32, i32, double, double, double, double, double, double, double, double, [14 x double], [6 x double], [13 x double], double, double, double, double, double, double, double, double, i32, double, double, i32, double, double, ptr, i32, i64, i32, i32, i32, double, double, double, double, double, double, double, double, double, double, double, double, i64, i32, i64, i64, i64, i64, i64, i64, i64, i64, i64, ptr, i64, i64, ptr, i64, i64, ptr, i64, i64, i64, i64, i64, i64, i32, double, double, double, i64, i64, i64, i64, i64, i64, ptr, i32, ptr, i32, ptr, i32, ptr, i32, i32, i64, i32, ptr, i32, ptr, ptr, ptr, ptr, ptr, ptr, i32, i32, ptr, ptr, ptr, ptr, ptr, i64, double, i32, i32, i64, double, double, double, i32, i32, double, i32, i32, i32, i32, i32, i32, i32, i32, i32, i32, i32, i32, i32, i32, i32, i32, ptr, i64, i32, [6 x [4 x double]], i32, i64, ptr, i32, ptr, ptr, double, double, double, ptr, ptr, ptr, double, double, i32, i32, i64, ptr, i32, ptr, i32, i32, [13 x double], ptr, ptr, ptr, i32, ptr, i32 }
%struct.CVadjMemRec = type { double, double, i32, i32, double, i32, double, ptr, i32, ptr, i32, ptr, i32, ptr, i64, i64, ptr, i64, i32, ptr, ptr, ptr, ptr, i32, i32, i32, i32, [13 x ptr], [13 x ptr], [13 x double], ptr, ptr }

@__func__.CVodeAdjInit = private unnamed_addr constant [13 x i8] c"CVodeAdjInit\00", align 1
@.str = private unnamed_addr constant [115 x i8] c"generated/home/dtcxzyw/WorkSpace/Projects/compilers/llvm-opt-benchmark/bench/sundials/sundials/src/cvodes/cvodea.c\00", align 1
@.str.1 = private unnamed_addr constant [26 x i8] c"cvode_mem = NULL illegal.\00", align 1
@.str.2 = private unnamed_addr constant [27 x i8] c"Steps nonpositive illegal.\00", align 1
@.str.3 = private unnamed_addr constant [26 x i8] c"Illegal value for interp.\00", align 1
@.str.4 = private unnamed_addr constant [25 x i8] c"A memory request failed.\00", align 1

; Function Attrs: nounwind uwtable
define i32 @CVodeAdjInit(ptr noundef %0, i64 noundef %1, i32 noundef %2) #0 {
  %4 = alloca i32, align 4
  %5 = alloca ptr, align 8
  %6 = alloca i64, align 8
  %7 = alloca i32, align 4
  %8 = alloca ptr, align 8
  %9 = alloca ptr, align 8
  %10 = alloca i64, align 8
  %11 = alloca i64, align 8
  %12 = alloca i32, align 4
  store ptr %0, ptr %5, align 8, !tbaa !3
  store i64 %1, ptr %6, align 8, !tbaa !7
  store i32 %2, ptr %7, align 4, !tbaa !9
  call void @llvm.lifetime.start.p0(i64 8, ptr %8) #6
  call void @llvm.lifetime.start.p0(i64 8, ptr %9) #6
  call void @llvm.lifetime.start.p0(i64 8, ptr %10) #6
  call void @llvm.lifetime.start.p0(i64 8, ptr %11) #6
  %13 = load ptr, ptr %5, align 8, !tbaa !3
  %14 = icmp eq ptr %13, null
  br i1 %14, label %15, label %16

15:                                               ; preds = %3
  call void (ptr, i32, i32, ptr, ptr, ptr, ...) @cvProcessError(ptr noundef null, i32 noundef -21, i32 noundef 111, ptr noundef @__func__.CVodeAdjInit, ptr noundef @.str, ptr noundef @.str.1)
  store i32 -21, ptr %4, align 4
  store i32 1, ptr %12, align 4
  br label %170

16:                                               ; preds = %3
  %17 = load ptr, ptr %5, align 8, !tbaa !3
  store ptr %17, ptr %9, align 8, !tbaa !11
  %18 = load i64, ptr %6, align 8, !tbaa !7
  %19 = icmp sle i64 %18, 0
  br i1 %19, label %20, label %22

20:                                               ; preds = %16
  %21 = load ptr, ptr %9, align 8, !tbaa !11
  call void (ptr, i32, i32, ptr, ptr, ptr, ...) @cvProcessError(ptr noundef %21, i32 noundef -22, i32 noundef 120, ptr noundef @__func__.CVodeAdjInit, ptr noundef @.str, ptr noundef @.str.2)
  store i32 -22, ptr %4, align 4
  store i32 1, ptr %12, align 4
  br label %170

22:                                               ; preds = %16
  %23 = load i32, ptr %7, align 4, !tbaa !9
  %24 = icmp ne i32 %23, 1
  br i1 %24, label %25, label %30

25:                                               ; preds = %22
  %26 = load i32, ptr %7, align 4, !tbaa !9
  %27 = icmp ne i32 %26, 2
  br i1 %27, label %28, label %30

28:                                               ; preds = %25
  %29 = load ptr, ptr %9, align 8, !tbaa !11
  call void (ptr, i32, i32, ptr, ptr, ptr, ...) @cvProcessError(ptr noundef %29, i32 noundef -22, i32 noundef 128, ptr noundef @__func__.CVodeAdjInit, ptr noundef @.str, ptr noundef @.str.3)
  store i32 -22, ptr %4, align 4
  store i32 1, ptr %12, align 4
  br label %170

30:                                               ; preds = %25, %22
  store ptr null, ptr %8, align 8, !tbaa !13
  %31 = call noalias ptr @malloc(i64 noundef 520) #7
  store ptr %31, ptr %8, align 8, !tbaa !13
  %32 = load ptr, ptr %8, align 8, !tbaa !13
  %33 = icmp eq ptr %32, null
  br i1 %33, label %34, label %36

34:                                               ; preds = %30
  %35 = load ptr, ptr %9, align 8, !tbaa !11
  call void (ptr, i32, i32, ptr, ptr, ptr, ...) @cvProcessError(ptr noundef %35, i32 noundef -20, i32 noundef 142, ptr noundef @__func__.CVodeAdjInit, ptr noundef @.str, ptr noundef @.str.4)
  store i32 -20, ptr %4, align 4
  store i32 1, ptr %12, align 4
  br label %170

36:                                               ; preds = %30
  %37 = load ptr, ptr %8, align 8, !tbaa !13
  %38 = load ptr, ptr %9, align 8, !tbaa !11
  %39 = getelementptr inbounds nuw %struct.CVodeMemRec, ptr %38, i32 0, i32 248
  store ptr %37, ptr %39, align 8, !tbaa !15
  %40 = load ptr, ptr %8, align 8, !tbaa !13
  %41 = getelementptr inbounds nuw %struct.CVadjMemRec, ptr %40, i32 0, i32 11
  store ptr null, ptr %41, align 8, !tbaa !26
  %42 = load ptr, ptr %8, align 8, !tbaa !13
  %43 = getelementptr inbounds nuw %struct.CVadjMemRec, ptr %42, i32 0, i32 12
  store i32 0, ptr %43, align 8, !tbaa !31
  %44 = load ptr, ptr %8, align 8, !tbaa !13
  %45 = getelementptr inbounds nuw %struct.CVadjMemRec, ptr %44, i32 0, i32 13
  store ptr null, ptr %45, align 8, !tbaa !32
  %46 = load i32, ptr %7, align 4, !tbaa !9
  %47 = load ptr, ptr %8, align 8, !tbaa !13
  %48 = getelementptr inbounds nuw %struct.CVadjMemRec, ptr %47, i32 0, i32 18
  store i32 %46, ptr %48, align 8, !tbaa !33
  %49 = load i64, ptr %6, align 8, !tbaa !7
  %50 = load ptr, ptr %8, align 8, !tbaa !13
  %51 = getelementptr inbounds nuw %struct.CVadjMemRec, ptr %50, i32 0, i32 14
  store i64 %49, ptr %51, align 8, !tbaa !34
  %52 = load ptr, ptr %8, align 8, !tbaa !13
  %53 = getelementptr inbounds nuw %struct.CVadjMemRec, ptr %52, i32 0, i32 15
  store i64 -1, ptr %53, align 8, !tbaa !35
  %54 = load ptr, ptr %8, align 8, !tbaa !13
  %55 = getelementptr inbounds nuw %struct.CVadjMemRec, ptr %54, i32 0, i32 16
  store ptr null, ptr %55, align 8, !tbaa !36
  %56 = load i64, ptr %6, align 8, !tbaa !7
  %57 = add nsw i64 %56, 1
  %58 = mul i64 %57, 8
  %59 = call noalias ptr @malloc(i64 noundef %58) #7
  %60 = load ptr, ptr %8, align 8, !tbaa !13
  %61 = getelementptr inbounds nuw %struct.CVadjMemRec, ptr %60, i32 0, i32 16
  store ptr %59, ptr %61, align 8, !tbaa !36
  %62 = load ptr, ptr %8, align 8, !tbaa !13
  %63 = getelementptr inbounds nuw %struct.CVadjMemRec, ptr %62, i32 0, i32 16
  %64 = load ptr, ptr %63, align 8, !tbaa !36
  %65 = icmp eq ptr %64, null
  br i1 %65, label %66, label %69

66:                                               ; preds = %36
  %67 = load ptr, ptr %8, align 8, !tbaa !13
  call void @free(ptr noundef %67) #6
  store ptr null, ptr %8, align 8, !tbaa !13
  %68 = load ptr, ptr %9, align 8, !tbaa !11
  call void (ptr, i32, i32, ptr, ptr, ptr, ...) @cvProcessError(ptr noundef %68, i32 noundef -20, i32 noundef 189, ptr noundef @__func__.CVodeAdjInit, ptr noundef @.str, ptr noundef @.str.4)
  store i32 -20, ptr %4, align 4
  store i32 1, ptr %12, align 4
  br label %170

69:                                               ; preds = %36
  store i64 0, ptr %10, align 8, !tbaa !7
  br label %70

70:                                               ; preds = %122, %69
  %71 = load i64, ptr %10, align 8, !tbaa !7
  %72 = load i64, ptr %6, align 8, !tbaa !7
  %73 = icmp sle i64 %71, %72
  br i1 %73, label %74, label %125

74:                                               ; preds = %70
  %75 = load ptr, ptr %8, align 8, !tbaa !13
  %76 = getelementptr inbounds nuw %struct.CVadjMemRec, ptr %75, i32 0, i32 16
  %77 = load ptr, ptr %76, align 8, !tbaa !36
  %78 = load i64, ptr %10, align 8, !tbaa !7
  %79 = getelementptr inbounds ptr, ptr %77, i64 %78
  store ptr null, ptr %79, align 8, !tbaa !37
  %80 = call noalias ptr @malloc(i64 noundef 16) #7
  %81 = load ptr, ptr %8, align 8, !tbaa !13
  %82 = getelementptr inbounds nuw %struct.CVadjMemRec, ptr %81, i32 0, i32 16
  %83 = load ptr, ptr %82, align 8, !tbaa !36
  %84 = load i64, ptr %10, align 8, !tbaa !7
  %85 = getelementptr inbounds ptr, ptr %83, i64 %84
  store ptr %80, ptr %85, align 8, !tbaa !37
  %86 = load ptr, ptr %8, align 8, !tbaa !13
  %87 = getelementptr inbounds nuw %struct.CVadjMemRec, ptr %86, i32 0, i32 16
  %88 = load ptr, ptr %87, align 8, !tbaa !36
  %89 = load i64, ptr %10, align 8, !tbaa !7
  %90 = getelementptr inbounds ptr, ptr %88, i64 %89
  %91 = load ptr, ptr %90, align 8, !tbaa !37
  %92 = icmp eq ptr %91, null
  br i1 %92, label %93, label %121

93:                                               ; preds = %74
  store i64 0, ptr %11, align 8, !tbaa !7
  br label %94

94:                                               ; preds = %110, %93
  %95 = load i64, ptr %11, align 8, !tbaa !7
  %96 = load i64, ptr %10, align 8, !tbaa !7
  %97 = icmp slt i64 %95, %96
  br i1 %97, label %98, label %113

98:                                               ; preds = %94
  %99 = load ptr, ptr %8, align 8, !tbaa !13
  %100 = getelementptr inbounds nuw %struct.CVadjMemRec, ptr %99, i32 0, i32 16
  %101 = load ptr, ptr %100, align 8, !tbaa !36
  %102 = load i64, ptr %11, align 8, !tbaa !7
  %103 = getelementptr inbounds ptr, ptr %101, i64 %102
  %104 = load ptr, ptr %103, align 8, !tbaa !37
  call void @free(ptr noundef %104) #6
  %105 = load ptr, ptr %8, align 8, !tbaa !13
  %106 = getelementptr inbounds nuw %struct.CVadjMemRec, ptr %105, i32 0, i32 16
  %107 = load ptr, ptr %106, align 8, !tbaa !36
  %108 = load i64, ptr %11, align 8, !tbaa !7
  %109 = getelementptr inbounds ptr, ptr %107, i64 %108
  store ptr null, ptr %109, align 8, !tbaa !37
  br label %110

110:                                              ; preds = %98
  %111 = load i64, ptr %11, align 8, !tbaa !7
  %112 = add nsw i64 %111, 1
  store i64 %112, ptr %11, align 8, !tbaa !7
  br label %94

113:                                              ; preds = %94
  %114 = load ptr, ptr %8, align 8, !tbaa !13
  %115 = getelementptr inbounds nuw %struct.CVadjMemRec, ptr %114, i32 0, i32 16
  %116 = load ptr, ptr %115, align 8, !tbaa !36
  call void @free(ptr noundef %116) #6
  %117 = load ptr, ptr %8, align 8, !tbaa !13
  %118 = getelementptr inbounds nuw %struct.CVadjMemRec, ptr %117, i32 0, i32 16
  store ptr null, ptr %118, align 8, !tbaa !36
  %119 = load ptr, ptr %8, align 8, !tbaa !13
  call void @free(ptr noundef %119) #6
  store ptr null, ptr %8, align 8, !tbaa !13
  %120 = load ptr, ptr %9, align 8, !tbaa !11
  call void (ptr, i32, i32, ptr, ptr, ptr, ...) @cvProcessError(ptr noundef %120, i32 noundef -20, i32 noundef 210, ptr noundef @__func__.CVodeAdjInit, ptr noundef @.str, ptr noundef @.str.4)
  store i32 -20, ptr %4, align 4
  store i32 1, ptr %12, align 4
  br label %170

121:                                              ; preds = %74
  br label %122

122:                                              ; preds = %121
  %123 = load i64, ptr %10, align 8, !tbaa !7
  %124 = add nsw i64 %123, 1
  store i64 %124, ptr %10, align 8, !tbaa !7
  br label %70

125:                                              ; preds = %70
  %126 = load i32, ptr %7, align 4, !tbaa !9
  switch i32 %126, label %145 [
    i32 1, label %127
    i32 2, label %136
  ]

127:                                              ; preds = %125
  %128 = load ptr, ptr %8, align 8, !tbaa !13
  %129 = getelementptr inbounds nuw %struct.CVadjMemRec, ptr %128, i32 0, i32 19
  store ptr @CVAhermiteMalloc, ptr %129, align 8, !tbaa !39
  %130 = load ptr, ptr %8, align 8, !tbaa !13
  %131 = getelementptr inbounds nuw %struct.CVadjMemRec, ptr %130, i32 0, i32 20
  store ptr @CVAhermiteFree, ptr %131, align 8, !tbaa !40
  %132 = load ptr, ptr %8, align 8, !tbaa !13
  %133 = getelementptr inbounds nuw %struct.CVadjMemRec, ptr %132, i32 0, i32 22
  store ptr @CVAhermiteGetY, ptr %133, align 8, !tbaa !41
  %134 = load ptr, ptr %8, align 8, !tbaa !13
  %135 = getelementptr inbounds nuw %struct.CVadjMemRec, ptr %134, i32 0, i32 21
  store ptr @CVAhermiteStorePnt, ptr %135, align 8, !tbaa !42
  br label %145

136:                                              ; preds = %125
  %137 = load ptr, ptr %8, align 8, !tbaa !13
  %138 = getelementptr inbounds nuw %struct.CVadjMemRec, ptr %137, i32 0, i32 19
  store ptr @CVApolynomialMalloc, ptr %138, align 8, !tbaa !39
  %139 = load ptr, ptr %8, align 8, !tbaa !13
  %140 = getelementptr inbounds nuw %struct.CVadjMemRec, ptr %139, i32 0, i32 20
  store ptr @CVApolynomialFree, ptr %140, align 8, !tbaa !40
  %141 = load ptr, ptr %8, align 8, !tbaa !13
  %142 = getelementptr inbounds nuw %struct.CVadjMemRec, ptr %141, i32 0, i32 22
  store ptr @CVApolynomialGetY, ptr %142, align 8, !tbaa !41
  %143 = load ptr, ptr %8, align 8, !tbaa !13
  %144 = getelementptr inbounds nuw %struct.CVadjMemRec, ptr %143, i32 0, i32 21
  store ptr @CVApolynomialStorePnt, ptr %144, align 8, !tbaa !42
  br label %145

145:                                              ; preds = %125, %136, %127
  %146 = load ptr, ptr %8, align 8, !tbaa !13
  %147 = getelementptr inbounds nuw %struct.CVadjMemRec, ptr %146, i32 0, i32 23
  store i32 0, ptr %147, align 8, !tbaa !43
  %148 = load ptr, ptr %8, align 8, !tbaa !13
  %149 = getelementptr inbounds nuw %struct.CVadjMemRec, ptr %148, i32 0, i32 25
  store i32 1, ptr %149, align 8, !tbaa !44
  %150 = load ptr, ptr %8, align 8, !tbaa !13
  %151 = getelementptr inbounds nuw %struct.CVadjMemRec, ptr %150, i32 0, i32 26
  store i32 0, ptr %151, align 4, !tbaa !45
  %152 = load ptr, ptr %8, align 8, !tbaa !13
  %153 = getelementptr inbounds nuw %struct.CVadjMemRec, ptr %152, i32 0, i32 7
  store ptr null, ptr %153, align 8, !tbaa !46
  %154 = load ptr, ptr %8, align 8, !tbaa !13
  %155 = getelementptr inbounds nuw %struct.CVadjMemRec, ptr %154, i32 0, i32 9
  store ptr null, ptr %155, align 8, !tbaa !47
  %156 = load ptr, ptr %8, align 8, !tbaa !13
  %157 = getelementptr inbounds nuw %struct.CVadjMemRec, ptr %156, i32 0, i32 8
  store i32 0, ptr %157, align 8, !tbaa !48
  %158 = load ptr, ptr %8, align 8, !tbaa !13
  %159 = getelementptr inbounds nuw %struct.CVadjMemRec, ptr %158, i32 0, i32 2
  store i32 1, ptr %159, align 8, !tbaa !49
  %160 = load ptr, ptr %8, align 8, !tbaa !13
  %161 = getelementptr inbounds nuw %struct.CVadjMemRec, ptr %160, i32 0, i32 3
  store i32 0, ptr %161, align 4, !tbaa !50
  %162 = load ptr, ptr %8, align 8, !tbaa !13
  %163 = getelementptr inbounds nuw %struct.CVadjMemRec, ptr %162, i32 0, i32 10
  store i32 1, ptr %163, align 8, !tbaa !51
  %164 = load ptr, ptr %8, align 8, !tbaa !13
  %165 = getelementptr inbounds nuw %struct.CVadjMemRec, ptr %164, i32 0, i32 5
  store i32 0, ptr %165, align 8, !tbaa !52
  %166 = load ptr, ptr %9, align 8, !tbaa !11
  %167 = getelementptr inbounds nuw %struct.CVodeMemRec, ptr %166, i32 0, i32 247
  store i32 1, ptr %167, align 8, !tbaa !53
  %168 = load ptr, ptr %9, align 8, !tbaa !11
  %169 = getelementptr inbounds nuw %struct.CVodeMemRec, ptr %168, i32 0, i32 249
  store i32 1, ptr %169, align 8, !tbaa !54
  store i32 0, ptr %4, align 4
  store i32 1, ptr %12, align 4
  br label %170

170:                                              ; preds = %145, %113, %66, %34, %28, %20, %15
  call void @llvm.lifetime.end.p0(i64 8, ptr %11) #6
  call void @llvm.lifetime.end.p0(i64 8, ptr %10) #6
  call void @llvm.lifetime.end.p0(i64 8, ptr %9) #6
  call void @llvm.lifetime.end.p0(i64 8, ptr %8) #6
  %171 = load i32, ptr %4, align 4
  ret i32 %171
}