; Function Attrs: nounwind uwtable
define range(i32 -22, 1) i32 @CVodeAdjInit(ptr noundef %0, i64 noundef %1, i32 noundef %2) local_unnamed_addr #0 {
  %4 = icmp eq ptr %0, null
  br i1 %4, label %5, label %6

5:                                                ; preds = %3
  tail call void (ptr, i32, i32, ptr, ptr, ptr, ...) @cvProcessError(ptr noundef null, i32 noundef -21, i32 noundef 111, ptr noundef nonnull @__func__.CVodeAdjInit, ptr noundef nonnull @.str, ptr noundef nonnull @.str.1) #9
  br label %60

6:                                                ; preds = %3
  %7 = icmp slt i64 %1, 1
  br i1 %7, label %8, label %9

8:                                                ; preds = %6
  tail call void (ptr, i32, i32, ptr, ptr, ptr, ...) @cvProcessError(ptr noundef nonnull %0, i32 noundef -22, i32 noundef 120, ptr noundef nonnull @__func__.CVodeAdjInit, ptr noundef nonnull @.str, ptr noundef nonnull @.str.2) #9
  br label %60

9:                                                ; preds = %6
  %10 = add i32 %2, -3
  %or.cond = icmp ult i32 %10, -2
  br i1 %or.cond, label %11, label %12

11:                                               ; preds = %9
  tail call void (ptr, i32, i32, ptr, ptr, ptr, ...) @cvProcessError(ptr noundef nonnull %0, i32 noundef -22, i32 noundef 128, ptr noundef nonnull @__func__.CVodeAdjInit, ptr noundef nonnull @.str, ptr noundef nonnull @.str.3) #9
  br label %60

12:                                               ; preds = %9
  %13 = tail call noalias dereferenceable_or_null(520) ptr @malloc(i64 noundef 520) #10
  %14 = icmp eq ptr %13, null
  br i1 %14, label %15, label %16

15:                                               ; preds = %12
  tail call void (ptr, i32, i32, ptr, ptr, ptr, ...) @cvProcessError(ptr noundef nonnull %0, i32 noundef -20, i32 noundef 142, ptr noundef nonnull @__func__.CVodeAdjInit, ptr noundef nonnull @.str, ptr noundef nonnull @.str.4) #9
  br label %60

16:                                               ; preds = %12
  %17 = getelementptr inbounds nuw i8, ptr %0, i64 2672
  store ptr %13, ptr %17, align 8, !tbaa !3
  %18 = getelementptr inbounds nuw i8, ptr %13, i64 80
  store ptr null, ptr %18, align 8, !tbaa !20
  %19 = getelementptr inbounds nuw i8, ptr %13, i64 88
  store i32 0, ptr %19, align 8, !tbaa !25
  %20 = getelementptr inbounds nuw i8, ptr %13, i64 96
  store ptr null, ptr %20, align 8, !tbaa !26
  %21 = getelementptr inbounds nuw i8, ptr %13, i64 136
  store i32 %2, ptr %21, align 8, !tbaa !27
  %22 = getelementptr inbounds nuw i8, ptr %13, i64 104
  store i64 %1, ptr %22, align 8, !tbaa !28
  %23 = getelementptr inbounds nuw i8, ptr %13, i64 112
  store i64 -1, ptr %23, align 8, !tbaa !29
  %24 = getelementptr inbounds nuw i8, ptr %13, i64 120
  %25 = shl i64 %1, 3
  %26 = add i64 %25, 8
  %27 = tail call noalias ptr @malloc(i64 noundef %26) #10
  store ptr %27, ptr %24, align 8, !tbaa !30
  %28 = icmp eq ptr %27, null
  br i1 %28, label %29, label %.lr.ph

29:                                               ; preds = %16
  tail call void @free(ptr noundef nonnull %13) #9
  tail call void (ptr, i32, i32, ptr, ptr, ptr, ...) @cvProcessError(ptr noundef nonnull %0, i32 noundef -20, i32 noundef 189, ptr noundef nonnull @__func__.CVodeAdjInit, ptr noundef nonnull @.str, ptr noundef nonnull @.str.4) #9
  br label %60

.lr.ph:                                           ; preds = %16, %40
  %.06775 = phi i64 [ %41, %40 ], [ 0, %16 ]
  %30 = getelementptr inbounds nuw ptr, ptr %27, i64 %.06775
  %31 = tail call noalias dereferenceable_or_null(16) ptr @malloc(i64 noundef 16) #10
  store ptr %31, ptr %30, align 8, !tbaa !31
  %32 = icmp eq ptr %31, null
  br i1 %32, label %.preheader, label %40

.preheader:                                       ; preds = %.lr.ph
  %.not = icmp eq i64 %.06775, 0
  br i1 %.not, label %._crit_edge78, label %.lr.ph77

.lr.ph77:                                         ; preds = %.preheader, %.lr.ph77
  %33 = phi ptr [ %36, %.lr.ph77 ], [ %27, %.preheader ]
  %.076 = phi i64 [ %38, %.lr.ph77 ], [ 0, %.preheader ]
  %34 = getelementptr inbounds nuw ptr, ptr %33, i64 %.076
  %35 = load ptr, ptr %34, align 8, !tbaa !31
  tail call void @free(ptr noundef %35) #9
  %36 = load ptr, ptr %24, align 8, !tbaa !30
  %37 = getelementptr inbounds nuw ptr, ptr %36, i64 %.076
  store ptr null, ptr %37, align 8, !tbaa !31
  %38 = add nuw nsw i64 %.076, 1
  %exitcond82.not = icmp eq i64 %38, %.06775
  br i1 %exitcond82.not, label %._crit_edge78, label %.lr.ph77

._crit_edge78:                                    ; preds = %.lr.ph77, %.preheader
  %39 = phi ptr [ %27, %.preheader ], [ %36, %.lr.ph77 ]
  tail call void @free(ptr noundef nonnull %39) #9
  tail call void @free(ptr noundef %13) #9
  tail call void (ptr, i32, i32, ptr, ptr, ptr, ...) @cvProcessError(ptr noundef nonnull %0, i32 noundef -20, i32 noundef 210, ptr noundef nonnull @__func__.CVodeAdjInit, ptr noundef nonnull @.str, ptr noundef nonnull @.str.4) #9
  br label %60

40:                                               ; preds = %.lr.ph
  %41 = add nuw i64 %.06775, 1
  %exitcond.not = icmp eq i64 %.06775, %1
  br i1 %exitcond.not, label %._crit_edge, label %.lr.ph

._crit_edge:                                      ; preds = %40
  switch i32 %2, label %47 [
    i32 1, label %.sink.split
    i32 2, label %42
  ]

42:                                               ; preds = %._crit_edge
  br label %.sink.split

.sink.split:                                      ; preds = %._crit_edge, %42
  %CVApolynomialMalloc.sink = phi ptr [ @CVApolynomialMalloc, %42 ], [ @CVAhermiteMalloc, %._crit_edge ]
  %CVApolynomialFree.sink = phi ptr [ @CVApolynomialFree, %42 ], [ @CVAhermiteFree, %._crit_edge ]
  %CVApolynomialGetY.sink = phi ptr [ @CVApolynomialGetY, %42 ], [ @CVAhermiteGetY, %._crit_edge ]
  %CVApolynomialStorePnt.sink = phi ptr [ @CVApolynomialStorePnt, %42 ], [ @CVAhermiteStorePnt, %._crit_edge ]
  %43 = getelementptr inbounds nuw i8, ptr %13, i64 144
  store ptr %CVApolynomialMalloc.sink, ptr %43, align 8, !tbaa !33
  %44 = getelementptr inbounds nuw i8, ptr %13, i64 152
  store ptr %CVApolynomialFree.sink, ptr %44, align 8, !tbaa !34
  %45 = getelementptr inbounds nuw i8, ptr %13, i64 168
  store ptr %CVApolynomialGetY.sink, ptr %45, align 8, !tbaa !35
  %46 = getelementptr inbounds nuw i8, ptr %13, i64 160
  store ptr %CVApolynomialStorePnt.sink, ptr %46, align 8, !tbaa !36
  br label %47

47:                                               ; preds = %.sink.split, %._crit_edge
  %48 = getelementptr inbounds nuw i8, ptr %13, i64 176
  store i32 0, ptr %48, align 8, !tbaa !37
  %49 = getelementptr inbounds nuw i8, ptr %13, i64 184
  store i32 1, ptr %49, align 8, !tbaa !38
  %50 = getelementptr inbounds nuw i8, ptr %13, i64 188
  store i32 0, ptr %50, align 4, !tbaa !39
  %51 = getelementptr inbounds nuw i8, ptr %13, i64 48
  store ptr null, ptr %51, align 8, !tbaa !40
  %52 = getelementptr inbounds nuw i8, ptr %13, i64 64
  store ptr null, ptr %52, align 8, !tbaa !41
  %53 = getelementptr inbounds nuw i8, ptr %13, i64 56
  store i32 0, ptr %53, align 8, !tbaa !42
  %54 = getelementptr inbounds nuw i8, ptr %13, i64 16
  store i32 1, ptr %54, align 8, !tbaa !43
  %55 = getelementptr inbounds nuw i8, ptr %13, i64 20
  store i32 0, ptr %55, align 4, !tbaa !44
  %56 = getelementptr inbounds nuw i8, ptr %13, i64 72
  store i32 1, ptr %56, align 8, !tbaa !45
  %57 = getelementptr inbounds nuw i8, ptr %13, i64 32
  store i32 0, ptr %57, align 8, !tbaa !46
  %58 = getelementptr inbounds nuw i8, ptr %0, i64 2664
  store i32 1, ptr %58, align 8, !tbaa !47
  %59 = getelementptr inbounds nuw i8, ptr %0, i64 2680
  store i32 1, ptr %59, align 8, !tbaa !48
  br label %60

60:                                               ; preds = %47, %._crit_edge78, %29, %15, %11, %8, %5
  %.068 = phi i32 [ -21, %5 ], [ -22, %8 ], [ -22, %11 ], [ -20, %15 ], [ -20, %29 ], [ -20, %._crit_edge78 ], [ 0, %47 ]
  ret i32 %.068
}